target datalayout = "e-m:e-p270:32:32-p271:32:32-p272:64:64-i64:64-i128:128-f80:128-n8:16:32:64-S128"
target triple = "x86_64-pc-linux-gnu"

%"class.std::vector" = type { %"struct.std::_Vector_base" }
%"struct.std::_Vector_base" = type { %"struct.std::_Vector_base<int, std::allocator<int>>::_Vector_impl" }
%"struct.std::_Vector_base<int, std::allocator<int>>::_Vector_impl" = type { %"struct.std::_Vector_base<int, std::allocator<int>>::_Vector_impl_data" }
%"struct.std::_Vector_base<int, std::allocator<int>>::_Vector_impl_data" = type { ptr, ptr, ptr }
%"struct.Yosys::DriverMap::DriveBitId" = type { i32 }
%"struct.Yosys::DriverMap::DriveBitGraph" = type { %"class.Yosys::hashlib::dict", %"class.Yosys::hashlib::dict", %"class.Yosys::hashlib::dict.45" }
%"class.Yosys::hashlib::dict" = type <{ %"class.std::vector", %"class.std::vector.40", [8 x i8] }>
%"class.std::vector.40" = type { %"struct.std::_Vector_base.41" }
%"struct.std::_Vector_base.41" = type { %"struct.std::_Vector_base<Yosys::hashlib::dict<Yosys::DriverMap::DriveBitId, Yosys::DriverMap::DriveBitId>::entry_t, std::allocator<Yosys::hashlib::dict<Yosys::DriverMap::DriveBitId, Yosys::DriverMap::DriveBitId>::entry_t>>::_Vector_impl" }
%"struct.std::_Vector_base<Yosys::hashlib::dict<Yosys::DriverMap::DriveBitId, Yosys::DriverMap::DriveBitId>::entry_t, std::allocator<Yosys::hashlib::dict<Yosys::DriverMap::DriveBitId, Yosys::DriverMap::DriveBitId>::entry_t>>::_Vector_impl" = type { %"struct.std::_Vector_base<Yosys::hashlib::dict<Yosys::DriverMap::DriveBitId, Yosys::DriverMap::DriveBitId>::entry_t, std::allocator<Yosys::hashlib::dict<Yosys::DriverMap::DriveBitId, Yosys::DriverMap::DriveBitId>::entry_t>>::_Vector_impl_data" }
%"struct.std::_Vector_base<Yosys::hashlib::dict<Yosys::DriverMap::DriveBitId, Yosys::DriverMap::DriveBitId>::entry_t, std::allocator<Yosys::hashlib::dict<Yosys::DriverMap::DriveBitId, Yosys::DriverMap::DriveBitId>::entry_t>>::_Vector_impl_data" = type { ptr, ptr, ptr }
%"class.Yosys::hashlib::dict.45" = type <{ %"class.std::vector", %"class.std::vector.46", [8 x i8] }>
%"class.std::vector.46" = type { %"struct.std::_Vector_base.47" }
%"struct.std::_Vector_base.47" = type { %"struct.std::_Vector_base<Yosys::hashlib::dict<Yosys::DriverMap::DriveBitId, Yosys::hashlib::pool<Yosys::DriverMap::DriveBitId>>::entry_t, std::allocator<Yosys::hashlib::dict<Yosys::DriverMap::DriveBitId, Yosys::hashlib::pool<Yosys::DriverMap::DriveBitId>>::entry_t>>::_Vector_impl" }
%"struct.std::_Vector_base<Yosys::hashlib::dict<Yosys::DriverMap::DriveBitId, Yosys::hashlib::pool<Yosys::DriverMap::DriveBitId>>::entry_t, std::allocator<Yosys::hashlib::dict<Yosys::DriverMap::DriveBitId, Yosys::hashlib::pool<Yosys::DriverMap::DriveBitId>>::entry_t>>::_Vector_impl" = type { %"struct.std::_Vector_base<Yosys::hashlib::dict<Yosys::DriverMap::DriveBitId, Yosys::hashlib::pool<Yosys::DriverMap::DriveBitId>>::entry_t, std::allocator<Yosys::hashlib::dict<Yosys::DriverMap::DriveBitId, Yosys::hashlib::pool<Yosys::DriverMap::DriveBitId>>::entry_t>>::_Vector_impl_data" }
%"struct.std::_Vector_base<Yosys::hashlib::dict<Yosys::DriverMap::DriveBitId, Yosys::hashlib::pool<Yosys::DriverMap::DriveBitId>>::entry_t, std::allocator<Yosys::hashlib::dict<Yosys::DriverMap::DriveBitId, Yosys::hashlib::pool<Yosys::DriverMap::DriveBitId>>::entry_t>>::_Vector_impl_data" = type { ptr, ptr, ptr }

; Function Attrs: mustprogress uwtable
define void @_ZN5Yosys9DriverMap13DriveBitGraph5clearENS0_10DriveBitIdE(ptr noundef nonnull align 8 dereferenceable(168) %0, i32 %1) #4 align 2 {
  %3 = alloca %"struct.Yosys::DriverMap::DriveBitId", align 4
  %4 = alloca ptr, align 8
  %5 = getelementptr inbounds nuw %"struct.Yosys::DriverMap::DriveBitId", ptr %3, i32 0, i32 0
  store i32 %1, ptr %5, align 4
  store ptr %0, ptr %4, align 8, !tbaa !164
  %6 = load ptr, ptr %4, align 8
  %7 = getelementptr inbounds nuw %"struct.Yosys::DriverMap::DriveBitGraph", ptr %6, i32 0, i32 0
  %8 = call noundef i32 @_ZN5Yosys7hashlib4dictINS_9DriverMap10DriveBitIdES3_NS0_8hash_opsIS3_EEE5eraseERKS3_(ptr noundef nonnull align 8 dereferenceable(49) %7, ptr noundef nonnull align 4 dereferenceable(4) %3)
  %9 = getelementptr inbounds nuw %"struct.Yosys::DriverMap::DriveBitGraph", ptr %6, i32 0, i32 1
  %10 = call noundef i32 @_ZN5Yosys7hashlib4dictINS_9DriverMap10DriveBitIdES3_NS0_8hash_opsIS3_EEE5eraseERKS3_(ptr noundef nonnull align 8 dereferenceable(49) %9, ptr noundef nonnull align 4 dereferenceable(4) %3)
  %11 = getelementptr inbounds nuw %"struct.Yosys::DriverMap::DriveBitGraph", ptr %6, i32 0, i32 2
  %12 = call noundef i32 @_ZN5Yosys7hashlib4dictINS_9DriverMap10DriveBitIdENS0_4poolIS3_NS0_8hash_opsIS3_EEEES6_E5eraseERKS3_(ptr noundef nonnull align 8 dereferenceable(49) %11, ptr noundef nonnull align 4 dereferenceable(4) %3)
  ret void
}