; Function Attrs: mustprogress uwtable
define void @_ZN5Yosys9DriverMap13DriveBitGraph5clearENS0_10DriveBitIdE(ptr noundef nonnull align 8 dereferenceable(168) %0, i32 %1) local_unnamed_addr #5 align 2 {
  %3 = alloca %"struct.Yosys::DriverMap::DriveBitId", align 4
  store i32 %1, ptr %3, align 4
  %4 = call noundef i32 @_ZN5Yosys7hashlib4dictINS_9DriverMap10DriveBitIdES3_NS0_8hash_opsIS3_EEE5eraseERKS3_(ptr noundef nonnull align 8 dereferenceable(49) %0, ptr noundef nonnull align 4 dereferenceable(4) %3)
  %5 = getelementptr inbounds nuw i8, ptr %0, i64 56
  %6 = call noundef i32 @_ZN5Yosys7hashlib4dictINS_9DriverMap10DriveBitIdES3_NS0_8hash_opsIS3_EEE5eraseERKS3_(ptr noundef nonnull align 8 dereferenceable(49) %5, ptr noundef nonnull align 4 dereferenceable(4) %3)
  %7 = getelementptr inbounds nuw i8, ptr %0, i64 112
  %8 = call noundef i32 @_ZN5Yosys7hashlib4dictINS_9DriverMap10DriveBitIdENS0_4poolIS3_NS0_8hash_opsIS3_EEEES6_E5eraseERKS3_(ptr noundef nonnull align 8 dereferenceable(49) %7, ptr noundef nonnull align 4 dereferenceable(4) %3)
  ret void
}